target datalayout = "e-m:e-p270:32:32-p271:32:32-p272:64:64-i64:64-i128:128-f80:128-n8:16:32:64-S128"
target triple = "x86_64-pc-linux-gnu"

%struct.pg_wchar_tbl = type { ptr, ptr, ptr, ptr, ptr, ptr, i32 }

; Function Attrs: nounwind uwtable
define dso_local i32 @pg_encoding_max_length(i32 noundef %0) #1 {
  %2 = alloca i32, align 4
  store i32 %0, ptr %2, align 4
  %3 = load i32, ptr %2, align 4
  %4 = icmp sge i32 %3, 0
  br i1 %4, label %5, label %14

5:                                                ; preds = %1
  %6 = load i32, ptr %2, align 4
  %7 = icmp slt i32 %6, 42
  br i1 %7, label %8, label %14

8:                                                ; preds = %5
  %9 = load i32, ptr %2, align 4
  %10 = sext i32 %9 to i64
  %11 = getelementptr inbounds [42 x %struct.pg_wchar_tbl], ptr @pg_wchar_table, i64 0, i64 %10
  %12 = getelementptr inbounds nuw %struct.pg_wchar_tbl, ptr %11, i32 0, i32 6
  %13 = load i32, ptr %12, align 8
  br label %15

14:                                               ; preds = %5, %1
  br label %15

15:                                               ; preds = %14, %8
  %16 = phi i32 [ %13, %8 ], [ 1, %14 ]
  ret i32 %16
}