; Function Attrs: mustprogress nofree norecurse nosync nounwind willreturn memory(none) uwtable
define dso_local i32 @pg_encoding_max_length(i32 noundef %0) local_unnamed_addr #3 {
  %or.cond = icmp ult i32 %0, 42
  br i1 %or.cond, label %2, label %6

2:                                                ; preds = %1
  %3 = zext nneg i32 %0 to i64
  %4 = getelementptr inbounds nuw [42 x %struct.pg_wchar_tbl], ptr @pg_wchar_table, i64 0, i64 %3, i32 6
  %5 = load i32, ptr %4, align 8
  br label %6

6:                                                ; preds = %1, %2
  %7 = phi i32 [ %5, %2 ], [ 1, %1 ]
  ret i32 %7
}